	.text
	.attribute	4, 16
	.attribute	5, "rv32i2p0"
	.file	"builtin.c"
	.globl	print                           # -- Begin function print
	.p2align	2
	.type	print,@function
print:                                  # @print
	.cfi_startproc
# %bb.0:                                # %entry
	addi	sp, sp, -16
	.cfi_def_cfa_offset 16
	sw	ra, 12(sp)                      # 4-byte Folded Spill
	sw	s0, 8(sp)                       # 4-byte Folded Spill
	.cfi_offset ra, -4
	.cfi_offset s0, -8
	addi	s0, sp, 16
	.cfi_def_cfa s0, 0
	sw	a0, -12(s0)
	lw	a1, -12(s0)
	lui	a0, %hi(.L.str)
	addi	a0, a0, %lo(.L.str)
	call	printf@plt
	lw	ra, 12(sp)                      # 4-byte Folded Reload
	lw	s0, 8(sp)                       # 4-byte Folded Reload
	addi	sp, sp, 16
	ret
.Lfunc_end0:
	.size	print, .Lfunc_end0-print
	.cfi_endproc
                                        # -- End function
	.globl	println                         # -- Begin function println
	.p2align	2
	.type	println,@function
println:                                # @println
	.cfi_startproc
# %bb.0:                                # %entry
	addi	sp, sp, -16
	.cfi_def_cfa_offset 16
	sw	ra, 12(sp)                      # 4-byte Folded Spill
	sw	s0, 8(sp)                       # 4-byte Folded Spill
	.cfi_offset ra, -4
	.cfi_offset s0, -8
	addi	s0, sp, 16
	.cfi_def_cfa s0, 0
	sw	a0, -12(s0)
	lw	a1, -12(s0)
	lui	a0, %hi(.L.str.1)
	addi	a0, a0, %lo(.L.str.1)
	call	printf@plt
	lw	ra, 12(sp)                      # 4-byte Folded Reload
	lw	s0, 8(sp)                       # 4-byte Folded Reload
	addi	sp, sp, 16
	ret
.Lfunc_end1:
	.size	println, .Lfunc_end1-println
	.cfi_endproc
                                        # -- End function
	.globl	printInt                        # -- Begin function printInt
	.p2align	2
	.type	printInt,@function
printInt:                               # @printInt
	.cfi_startproc
# %bb.0:                                # %entry
	addi	sp, sp, -16
	.cfi_def_cfa_offset 16
	sw	ra, 12(sp)                      # 4-byte Folded Spill
	sw	s0, 8(sp)                       # 4-byte Folded Spill
	.cfi_offset ra, -4
	.cfi_offset s0, -8
	addi	s0, sp, 16
	.cfi_def_cfa s0, 0
	sw	a0, -12(s0)
	lw	a1, -12(s0)
	lui	a0, %hi(.L.str.2)
	addi	a0, a0, %lo(.L.str.2)
	call	printf@plt
	lw	ra, 12(sp)                      # 4-byte Folded Reload
	lw	s0, 8(sp)                       # 4-byte Folded Reload
	addi	sp, sp, 16
	ret
.Lfunc_end2:
	.size	printInt, .Lfunc_end2-printInt
	.cfi_endproc
                                        # -- End function
	.globl	printlnInt                      # -- Begin function printlnInt
	.p2align	2
	.type	printlnInt,@function
printlnInt:                             # @printlnInt
	.cfi_startproc
# %bb.0:                                # %entry
	addi	sp, sp, -16
	.cfi_def_cfa_offset 16
	sw	ra, 12(sp)                      # 4-byte Folded Spill
	sw	s0, 8(sp)                       # 4-byte Folded Spill
	.cfi_offset ra, -4
	.cfi_offset s0, -8
	addi	s0, sp, 16
	.cfi_def_cfa s0, 0
	sw	a0, -12(s0)
	lw	a1, -12(s0)
	lui	a0, %hi(.L.str.3)
	addi	a0, a0, %lo(.L.str.3)
	call	printf@plt
	lw	ra, 12(sp)                      # 4-byte Folded Reload
	lw	s0, 8(sp)                       # 4-byte Folded Reload
	addi	sp, sp, 16
	ret
.Lfunc_end3:
	.size	printlnInt, .Lfunc_end3-printlnInt
	.cfi_endproc
                                        # -- End function
	.globl	getString                       # -- Begin function getString
	.p2align	2
	.type	getString,@function
getString:                              # @getString
	.cfi_startproc
# %bb.0:                                # %entry
	addi	sp, sp, -16
	.cfi_def_cfa_offset 16
	sw	ra, 12(sp)                      # 4-byte Folded Spill
	sw	s0, 8(sp)                       # 4-byte Folded Spill
	.cfi_offset ra, -4
	.cfi_offset s0, -8
	addi	s0, sp, 16
	.cfi_def_cfa s0, 0
	lui	a0, 1
	call	malloc@plt
	sw	a0, -12(s0)
	lw	a1, -12(s0)
	lui	a0, %hi(.L.str)
	addi	a0, a0, %lo(.L.str)
	call	scanf@plt
	lw	a0, -12(s0)
	lw	ra, 12(sp)                      # 4-byte Folded Reload
	lw	s0, 8(sp)                       # 4-byte Folded Reload
	addi	sp, sp, 16
	ret
.Lfunc_end4:
	.size	getString, .Lfunc_end4-getString
	.cfi_endproc
                                        # -- End function
	.globl	getInt                          # -- Begin function getInt
	.p2align	2
	.type	getInt,@function
getInt:                                 # @getInt
	.cfi_startproc
# %bb.0:                                # %entry
	addi	sp, sp, -16
	.cfi_def_cfa_offset 16
	sw	ra, 12(sp)                      # 4-byte Folded Spill
	sw	s0, 8(sp)                       # 4-byte Folded Spill
	.cfi_offset ra, -4
	.cfi_offset s0, -8
	addi	s0, sp, 16
	.cfi_def_cfa s0, 0
	lui	a0, %hi(.L.str.2)
	addi	a0, a0, %lo(.L.str.2)
	addi	a1, s0, -12
	call	scanf@plt
	lw	a0, -12(s0)
	lw	ra, 12(sp)                      # 4-byte Folded Reload
	lw	s0, 8(sp)                       # 4-byte Folded Reload
	addi	sp, sp, 16
	ret
.Lfunc_end5:
	.size	getInt, .Lfunc_end5-getInt
	.cfi_endproc
                                        # -- End function
	.globl	toString                        # -- Begin function toString
	.p2align	2
	.type	toString,@function
toString:                               # @toString
	.cfi_startproc
# %bb.0:                                # %entry
	addi	sp, sp, -16
	.cfi_def_cfa_offset 16
	sw	ra, 12(sp)                      # 4-byte Folded Spill
	sw	s0, 8(sp)                       # 4-byte Folded Spill
	.cfi_offset ra, -4
	.cfi_offset s0, -8
	addi	s0, sp, 16
	.cfi_def_cfa s0, 0
	sw	a0, -12(s0)
	li	a0, 16
	call	malloc@plt
	sw	a0, -16(s0)
	lw	a0, -16(s0)
	lw	a2, -12(s0)
	lui	a1, %hi(.L.str.2)
	addi	a1, a1, %lo(.L.str.2)
	call	sprintf@plt
	lw	a0, -16(s0)
	lw	ra, 12(sp)                      # 4-byte Folded Reload
	lw	s0, 8(sp)                       # 4-byte Folded Reload
	addi	sp, sp, 16
	ret
.Lfunc_end6:
	.size	toString, .Lfunc_end6-toString
	.cfi_endproc
                                        # -- End function
	.globl	string_string                   # -- Begin function string_string
	.p2align	2
	.type	string_string,@function
string_string:                          # @string_string
	.cfi_startproc
# %bb.0:                                # %entry
	addi	sp, sp, -16
	.cfi_def_cfa_offset 16
	sw	ra, 12(sp)                      # 4-byte Folded Spill
	sw	s0, 8(sp)                       # 4-byte Folded Spill
	.cfi_offset ra, -4
	.cfi_offset s0, -8
	addi	s0, sp, 16
	.cfi_def_cfa s0, 0
	li	a0, 1
	call	malloc@plt
	sw	a0, -12(s0)
	lw	a0, -12(s0)
	sb	zero, 0(a0)
	lw	a0, -12(s0)
	lw	ra, 12(sp)                      # 4-byte Folded Reload
	lw	s0, 8(sp)                       # 4-byte Folded Reload
	addi	sp, sp, 16
	ret
.Lfunc_end7:
	.size	string_string, .Lfunc_end7-string_string
	.cfi_endproc
                                        # -- End function
	.globl	string_length                   # -- Begin function string_length
	.p2align	2
	.type	string_length,@function
string_length:                          # @string_length
	.cfi_startproc
# %bb.0:                                # %entry
	addi	sp, sp, -16
	.cfi_def_cfa_offset 16
	sw	ra, 12(sp)                      # 4-byte Folded Spill
	sw	s0, 8(sp)                       # 4-byte Folded Spill
	.cfi_offset ra, -4
	.cfi_offset s0, -8
	addi	s0, sp, 16
	.cfi_def_cfa s0, 0
	sw	a0, -12(s0)
	lw	a0, -12(s0)
	call	strlen@plt
	lw	ra, 12(sp)                      # 4-byte Folded Reload
	lw	s0, 8(sp)                       # 4-byte Folded Reload
	addi	sp, sp, 16
	ret
.Lfunc_end8:
	.size	string_length, .Lfunc_end8-string_length
	.cfi_endproc
                                        # -- End function
	.globl	string_substring                # -- Begin function string_substring
	.p2align	2
	.type	string_substring,@function
string_substring:                       # @string_substring
	.cfi_startproc
# %bb.0:                                # %entry
	addi	sp, sp, -32
	.cfi_def_cfa_offset 32
	sw	ra, 28(sp)                      # 4-byte Folded Spill
	sw	s0, 24(sp)                      # 4-byte Folded Spill
	.cfi_offset ra, -4
	.cfi_offset s0, -8
	addi	s0, sp, 32
	.cfi_def_cfa s0, 0
	sw	a0, -12(s0)
	sw	a1, -16(s0)
	sw	a2, -20(s0)
	lw	a0, -20(s0)
	lw	a1, -16(s0)
	sub	a0, a0, a1
	sw	a0, -24(s0)
	lw	a0, -24(s0)
	addi	a0, a0, 1
	call	malloc@plt
	sw	a0, -28(s0)
	lw	a0, -28(s0)
	lw	a1, -12(s0)
	lw	a2, -16(s0)
	add	a1, a1, a2
	lw	a2, -24(s0)
	call	memcpy@plt
	lw	a0, -28(s0)
	lw	a1, -24(s0)
	add	a0, a0, a1
	sb	zero, 0(a0)
	lw	a0, -28(s0)
	lw	ra, 28(sp)                      # 4-byte Folded Reload
	lw	s0, 24(sp)                      # 4-byte Folded Reload
	addi	sp, sp, 32
	ret
.Lfunc_end9:
	.size	string_substring, .Lfunc_end9-string_substring
	.cfi_endproc
                                        # -- End function
	.globl	string_parseInt                 # -- Begin function string_parseInt
	.p2align	2
	.type	string_parseInt,@function
string_parseInt:                        # @string_parseInt
	.cfi_startproc
# %bb.0:                                # %entry
	addi	sp, sp, -16
	.cfi_def_cfa_offset 16
	sw	ra, 12(sp)                      # 4-byte Folded Spill
	sw	s0, 8(sp)                       # 4-byte Folded Spill
	.cfi_offset ra, -4
	.cfi_offset s0, -8
	addi	s0, sp, 16
	.cfi_def_cfa s0, 0
	sw	a0, -12(s0)
	lw	a0, -12(s0)
	lui	a1, %hi(.L.str.2)
	addi	a1, a1, %lo(.L.str.2)
	addi	a2, s0, -16
	call	sscanf@plt
	lw	a0, -16(s0)
	lw	ra, 12(sp)                      # 4-byte Folded Reload
	lw	s0, 8(sp)                       # 4-byte Folded Reload
	addi	sp, sp, 16
	ret
.Lfunc_end10:
	.size	string_parseInt, .Lfunc_end10-string_parseInt
	.cfi_endproc
                                        # -- End function
	.globl	string_ord                      # -- Begin function string_ord
	.p2align	2
	.type	string_ord,@function
string_ord:                             # @string_ord
	.cfi_startproc
# %bb.0:                                # %entry
	addi	sp, sp, -16
	.cfi_def_cfa_offset 16
	sw	ra, 12(sp)                      # 4-byte Folded Spill
	sw	s0, 8(sp)                       # 4-byte Folded Spill
	.cfi_offset ra, -4
	.cfi_offset s0, -8
	addi	s0, sp, 16
	.cfi_def_cfa s0, 0
	sw	a0, -12(s0)
	sw	a1, -16(s0)
	lw	a0, -12(s0)
	lw	a1, -16(s0)
	add	a0, a0, a1
	lb	a0, 0(a0)
	lw	ra, 12(sp)                      # 4-byte Folded Reload
	lw	s0, 8(sp)                       # 4-byte Folded Reload
	addi	sp, sp, 16
	ret
.Lfunc_end11:
	.size	string_ord, .Lfunc_end11-string_ord
	.cfi_endproc
                                        # -- End function
	.globl	string_add                      # -- Begin function string_add
	.p2align	2
	.type	string_add,@function
string_add:                             # @string_add
	.cfi_startproc
# %bb.0:                                # %entry
	addi	sp, sp, -32
	.cfi_def_cfa_offset 32
	sw	ra, 28(sp)                      # 4-byte Folded Spill
	sw	s0, 24(sp)                      # 4-byte Folded Spill
	.cfi_offset ra, -4
	.cfi_offset s0, -8
	addi	s0, sp, 32
	.cfi_def_cfa s0, 0
	sw	a0, -12(s0)
	sw	a1, -16(s0)
	lw	a0, -12(s0)
	call	strlen@plt
	sw	a0, -20(s0)
	lw	a0, -16(s0)
	call	strlen@plt
	sw	a0, -24(s0)
	lw	a0, -20(s0)
	lw	a1, -24(s0)
	add	a0, a0, a1
	sw	a0, -28(s0)
	lw	a0, -28(s0)
	addi	a0, a0, 1
	call	malloc@plt
	sw	a0, -32(s0)
	lw	a0, -32(s0)
	lw	a1, -12(s0)
	lw	a2, -20(s0)
	call	memcpy@plt
	lw	a0, -32(s0)
	lw	a1, -20(s0)
	add	a0, a0, a1
	lw	a1, -16(s0)
	lw	a2, -24(s0)
	call	memcpy@plt
	lw	a0, -32(s0)
	lw	a1, -28(s0)
	add	a0, a0, a1
	sb	zero, 0(a0)
	lw	a0, -32(s0)
	lw	ra, 28(sp)                      # 4-byte Folded Reload
	lw	s0, 24(sp)                      # 4-byte Folded Reload
	addi	sp, sp, 32
	ret
.Lfunc_end12:
	.size	string_add, .Lfunc_end12-string_add
	.cfi_endproc
                                        # -- End function
	.globl	string_equal                    # -- Begin function string_equal
	.p2align	2
	.type	string_equal,@function
string_equal:                           # @string_equal
	.cfi_startproc
# %bb.0:                                # %entry
	addi	sp, sp, -16
	.cfi_def_cfa_offset 16
	sw	ra, 12(sp)                      # 4-byte Folded Spill
	sw	s0, 8(sp)                       # 4-byte Folded Spill
	.cfi_offset ra, -4
	.cfi_offset s0, -8
	addi	s0, sp, 16
	.cfi_def_cfa s0, 0
	sw	a0, -12(s0)
	sw	a1, -16(s0)
	lw	a0, -12(s0)
	lw	a1, -16(s0)
	call	strcmp@plt
	seqz	a0, a0
	lw	ra, 12(sp)                      # 4-byte Folded Reload
	lw	s0, 8(sp)                       # 4-byte Folded Reload
	addi	sp, sp, 16
	ret
.Lfunc_end13:
	.size	string_equal, .Lfunc_end13-string_equal
	.cfi_endproc
                                        # -- End function
	.globl	string_notEqual                 # -- Begin function string_notEqual
	.p2align	2
	.type	string_notEqual,@function
string_notEqual:                        # @string_notEqual
	.cfi_startproc
# %bb.0:                                # %entry
	addi	sp, sp, -16
	.cfi_def_cfa_offset 16
	sw	ra, 12(sp)                      # 4-byte Folded Spill
	sw	s0, 8(sp)                       # 4-byte Folded Spill
	.cfi_offset ra, -4
	.cfi_offset s0, -8
	addi	s0, sp, 16
	.cfi_def_cfa s0, 0
	sw	a0, -12(s0)
	sw	a1, -16(s0)
	lw	a0, -12(s0)
	lw	a1, -16(s0)
	call	strcmp@plt
	snez	a0, a0
	lw	ra, 12(sp)                      # 4-byte Folded Reload
	lw	s0, 8(sp)                       # 4-byte Folded Reload
	addi	sp, sp, 16
	ret
.Lfunc_end14:
	.size	string_notEqual, .Lfunc_end14-string_notEqual
	.cfi_endproc
                                        # -- End function
	.globl	string_less                     # -- Begin function string_less
	.p2align	2
	.type	string_less,@function
string_less:                            # @string_less
	.cfi_startproc
# %bb.0:                                # %entry
	addi	sp, sp, -16
	.cfi_def_cfa_offset 16
	sw	ra, 12(sp)                      # 4-byte Folded Spill
	sw	s0, 8(sp)                       # 4-byte Folded Spill
	.cfi_offset ra, -4
	.cfi_offset s0, -8
	addi	s0, sp, 16
	.cfi_def_cfa s0, 0
	sw	a0, -12(s0)
	sw	a1, -16(s0)
	lw	a0, -12(s0)
	lw	a1, -16(s0)
	call	strcmp@plt
	srli	a0, a0, 31
	lw	ra, 12(sp)                      # 4-byte Folded Reload
	lw	s0, 8(sp)                       # 4-byte Folded Reload
	addi	sp, sp, 16
	ret
.Lfunc_end15:
	.size	string_less, .Lfunc_end15-string_less
	.cfi_endproc
                                        # -- End function
	.globl	string_lessOrEqual              # -- Begin function string_lessOrEqual
	.p2align	2
	.type	string_lessOrEqual,@function
string_lessOrEqual:                     # @string_lessOrEqual
	.cfi_startproc
# %bb.0:                                # %entry
	addi	sp, sp, -16
	.cfi_def_cfa_offset 16
	sw	ra, 12(sp)                      # 4-byte Folded Spill
	sw	s0, 8(sp)                       # 4-byte Folded Spill
	.cfi_offset ra, -4
	.cfi_offset s0, -8
	addi	s0, sp, 16
	.cfi_def_cfa s0, 0
	sw	a0, -12(s0)
	sw	a1, -16(s0)
	lw	a0, -12(s0)
	lw	a1, -16(s0)
	call	strcmp@plt
	slti	a0, a0, 1
	lw	ra, 12(sp)                      # 4-byte Folded Reload
	lw	s0, 8(sp)                       # 4-byte Folded Reload
	addi	sp, sp, 16
	ret
.Lfunc_end16:
	.size	string_lessOrEqual, .Lfunc_end16-string_lessOrEqual
	.cfi_endproc
                                        # -- End function
	.globl	string_greater                  # -- Begin function string_greater
	.p2align	2
	.type	string_greater,@function
string_greater:                         # @string_greater
	.cfi_startproc
# %bb.0:                                # %entry
	addi	sp, sp, -16
	.cfi_def_cfa_offset 16
	sw	ra, 12(sp)                      # 4-byte Folded Spill
	sw	s0, 8(sp)                       # 4-byte Folded Spill
	.cfi_offset ra, -4
	.cfi_offset s0, -8
	addi	s0, sp, 16
	.cfi_def_cfa s0, 0
	sw	a0, -12(s0)
	sw	a1, -16(s0)
	lw	a0, -12(s0)
	lw	a1, -16(s0)
	call	strcmp@plt
	sgtz	a0, a0
	lw	ra, 12(sp)                      # 4-byte Folded Reload
	lw	s0, 8(sp)                       # 4-byte Folded Reload
	addi	sp, sp, 16
	ret
.Lfunc_end17:
	.size	string_greater, .Lfunc_end17-string_greater
	.cfi_endproc
                                        # -- End function
	.globl	string_greaterOrEqual           # -- Begin function string_greaterOrEqual
	.p2align	2
	.type	string_greaterOrEqual,@function
string_greaterOrEqual:                  # @string_greaterOrEqual
	.cfi_startproc
# %bb.0:                                # %entry
	addi	sp, sp, -16
	.cfi_def_cfa_offset 16
	sw	ra, 12(sp)                      # 4-byte Folded Spill
	sw	s0, 8(sp)                       # 4-byte Folded Spill
	.cfi_offset ra, -4
	.cfi_offset s0, -8
	addi	s0, sp, 16
	.cfi_def_cfa s0, 0
	sw	a0, -12(s0)
	sw	a1, -16(s0)
	lw	a0, -12(s0)
	lw	a1, -16(s0)
	call	strcmp@plt
	not	a0, a0
	srli	a0, a0, 31
	lw	ra, 12(sp)                      # 4-byte Folded Reload
	lw	s0, 8(sp)                       # 4-byte Folded Reload
	addi	sp, sp, 16
	ret
.Lfunc_end18:
	.size	string_greaterOrEqual, .Lfunc_end18-string_greaterOrEqual
	.cfi_endproc
                                        # -- End function
	.globl	__array_size                    # -- Begin function __array_size
	.p2align	2
	.type	__array_size,@function
__array_size:                           # @__array_size
	.cfi_startproc
# %bb.0:                                # %entry
	addi	sp, sp, -16
	.cfi_def_cfa_offset 16
	sw	ra, 12(sp)                      # 4-byte Folded Spill
	sw	s0, 8(sp)                       # 4-byte Folded Spill
	.cfi_offset ra, -4
	.cfi_offset s0, -8
	addi	s0, sp, 16
	.cfi_def_cfa s0, 0
	sw	a0, -12(s0)
	lw	a0, -12(s0)
	lw	a0, -4(a0)
	lw	ra, 12(sp)                      # 4-byte Folded Reload
	lw	s0, 8(sp)                       # 4-byte Folded Reload
	addi	sp, sp, 16
	ret
.Lfunc_end19:
	.size	__array_size, .Lfunc_end19-__array_size
	.cfi_endproc
                                        # -- End function
	.globl	__newPtrArray                   # -- Begin function __newPtrArray
	.p2align	2
	.type	__newPtrArray,@function
__newPtrArray:                          # @__newPtrArray
	.cfi_startproc
# %bb.0:                                # %entry
	addi	sp, sp, -32
	.cfi_def_cfa_offset 32
	sw	ra, 28(sp)                      # 4-byte Folded Spill
	sw	s0, 24(sp)                      # 4-byte Folded Spill
	.cfi_offset ra, -4
	.cfi_offset s0, -8
	addi	s0, sp, 32
	.cfi_def_cfa s0, 0
	sw	a0, -12(s0)
	sw	a1, -16(s0)
	lw	a0, -12(s0)
	call	malloc@plt
	sw	a0, -20(s0)
	lw	a0, -16(s0)
	lw	a1, -20(s0)
	sw	a0, 0(a1)
	lw	a0, -20(s0)
	addi	a0, a0, 4
	lw	ra, 28(sp)                      # 4-byte Folded Reload
	lw	s0, 24(sp)                      # 4-byte Folded Reload
	addi	sp, sp, 32
	ret
.Lfunc_end20:
	.size	__newPtrArray, .Lfunc_end20-__newPtrArray
	.cfi_endproc
                                        # -- End function
	.type	.L.str,@object                  # @.str
	.section	.rodata.str1.1,"aMS",@progbits,1
.L.str:
	.asciz	"%s"
	.size	.L.str, 3

	.type	.L.str.1,@object                # @.str.1
.L.str.1:
	.asciz	"%s\n"
	.size	.L.str.1, 4

	.type	.L.str.2,@object                # @.str.2
.L.str.2:
	.asciz	"%d"
	.size	.L.str.2, 3

	.type	.L.str.3,@object                # @.str.3
.L.str.3:
	.asciz	"%d\n"
	.size	.L.str.3, 4

	.ident	"Ubuntu clang version 15.0.7"
	.section	".note.GNU-stack","",@progbits
